target datalayout = "e-m:e-p270:32:32-p271:32:32-p272:64:64-i64:64-i128:128-f80:128-n8:16:32:64-S128"
target triple = "x86_64-pc-linux-gnu"

%class.Klass = type <{ %class.Metadata, i32, i32, i32, i32, ptr, ptr, ptr, [8 x ptr], %class.OopHandle, ptr, ptr, ptr, ptr, ptr, i32, %class.AccessFlags, i64, i64, i8, i8, i16, i16, [2 x i8], i32, [4 x i8] }>
%class.Metadata = type { ptr }
%class.OopHandle = type { ptr }
%class.AccessFlags = type { i32 }
%class.xmlStream = type { %class.outputStream, ptr, i64, i32, ptr, %class.xmlTextStream }
%class.outputStream = type { ptr, i32, i8, i32, i64, %class.TimeStamp, ptr, i64 }
%class.TimeStamp = type { i64 }
%class.xmlTextStream = type { %class.outputStream, ptr }

@g_assert_poison = external global ptr, align 8
@.str.15 = private unnamed_addr constant [42 x i8] c"src/hotspot/share/utilities/xmlstream.cpp\00", align 1

; Function Attrs: mustprogress nounwind uwtable
define linkonce_odr hidden noundef ptr @_ZN9xmlStream3outEv(ptr noundef nonnull align 8 dereferenceable(152) %0) #1 comdat align 2 {
  %2 = alloca ptr, align 8
  store ptr %0, ptr %2, align 8
  %3 = load ptr, ptr %2, align 8
  %4 = getelementptr inbounds %class.xmlStream, ptr %3, i32 0, i32 1
  %5 = load ptr, ptr %4, align 8
  ret ptr %5
}

; Function Attrs: mustprogress nounwind uwtable
define linkonce_odr hidden noundef ptr @_ZNK5Klass4nameEv(ptr noundef nonnull align 8 dereferenceable(196) %0) #1 comdat align 2 {
  %2 = alloca ptr, align 8
  store ptr %0, ptr %2, align 8
  %3 = load ptr, ptr %2, align 8
  %4 = getelementptr inbounds %class.Klass, ptr %3, i32 0, i32 5
  %5 = load ptr, ptr %4, align 8
  ret ptr %5
}

; Function Attrs: mustprogress nounwind uwtable
define hidden void @_ZN9xmlStream10klass_textEP5Klass(ptr noundef nonnull align 8 dereferenceable(152) %0, ptr noundef %1) #1 align 2 {
  %3 = alloca ptr, align 8
  %4 = alloca ptr, align 8
  store ptr %0, ptr %3, align 8
  store ptr %1, ptr %4, align 8
  %5 = load ptr, ptr %3, align 8
  %6 = load ptr, ptr %4, align 8
  %7 = icmp eq ptr %6, null
  br i1 %7, label %8, label %9

8:                                                ; preds = %2
  br label %13

9:                                                ; preds = %2
  %10 = load ptr, ptr %4, align 8
  %11 = call noundef ptr @_ZNK5Klass4nameEv(ptr noundef nonnull align 8 dereferenceable(196) %10)
  %12 = call noundef ptr @_ZN9xmlStream3outEv(ptr noundef nonnull align 8 dereferenceable(152) %5)
  call void @_ZNK6Symbol15print_symbol_onEP12outputStream(ptr noundef nonnull align 4 dereferenceable(8) %11, ptr noundef %12)
  br label %13

13:                                               ; preds = %9, %8
  ret void
}

; Function Attrs: mustprogress nounwind uwtable
define hidden void @_ZN9xmlStream11object_textEP8Metadata(ptr noundef nonnull align 8 dereferenceable(152) %0, ptr noundef %1) #1 align 2 {
  %3 = alloca ptr, align 8
  %4 = alloca ptr, align 8
  store ptr %0, ptr %3, align 8
  store ptr %1, ptr %4, align 8
  %5 = load ptr, ptr %3, align 8
  %6 = load ptr, ptr %4, align 8
  %7 = icmp eq ptr %6, null
  br i1 %7, label %8, label %9

8:                                                ; preds = %2
  br label %30

9:                                                ; preds = %2
  %10 = load ptr, ptr %4, align 8
  %11 = load ptr, ptr %10, align 8
  %12 = getelementptr inbounds ptr, ptr %11, i64 2
  %13 = load ptr, ptr %12, align 8
  %14 = call noundef zeroext i1 %13(ptr noundef nonnull align 8 dereferenceable(8) %10)
  br i1 %14, label %15, label %17

15:                                               ; preds = %9
  %16 = load ptr, ptr %4, align 8
  call void @_ZN9xmlStream11method_textEP6Method(ptr noundef nonnull align 8 dereferenceable(152) %5, ptr noundef %16)
  br label %30

17:                                               ; preds = %9
  %18 = load ptr, ptr %4, align 8
  %19 = load ptr, ptr %18, align 8
  %20 = getelementptr inbounds ptr, ptr %19, i64 1
  %21 = load ptr, ptr %20, align 8
  %22 = call noundef zeroext i1 %21(ptr noundef nonnull align 8 dereferenceable(8) %18)
  br i1 %22, label %23, label %25

23:                                               ; preds = %17
  %24 = load ptr, ptr %4, align 8
  call void @_ZN9xmlStream10klass_textEP5Klass(ptr noundef nonnull align 8 dereferenceable(152) %5, ptr noundef %24)
  br label %29

25:                                               ; preds = %17
  br label %26

26:                                               ; preds = %25
  %27 = load ptr, ptr @g_assert_poison, align 8
  store i8 88, ptr %27, align 1
  call void @_Z28report_should_not_reach_herePKci(ptr noundef @.str.15, i32 noundef 498) #9
  unreachable

28:                                               ; No predecessors!
  br label %29

29:                                               ; preds = %28, %23
  br label %30

30:                                               ; preds = %29, %15, %8
  ret void
}