; Function Attrs: mustprogress nounwind uwtable
define hidden void @_ZN9xmlStream11object_textEP8Metadata(ptr noundef nonnull align 8 dereferenceable(152) %0, ptr noundef %1) local_unnamed_addr #0 align 2 {
  %3 = icmp eq ptr %1, null
  br i1 %3, label %21, label %4

4:                                                ; preds = %2
  %5 = load ptr, ptr %1, align 8
  %6 = getelementptr inbounds i8, ptr %5, i64 16
  %7 = load ptr, ptr %6, align 8
  %8 = tail call noundef zeroext i1 %7(ptr noundef nonnull align 8 dereferenceable(8) %1) #8
  br i1 %8, label %9, label %10

9:                                                ; preds = %4
  tail call void @_ZN9xmlStream11method_textEP6Method(ptr noundef nonnull align 8 dereferenceable(152) %0, ptr noundef nonnull %1)
  br label %21

10:                                               ; preds = %4
  %11 = load ptr, ptr %1, align 8
  %12 = getelementptr inbounds i8, ptr %11, i64 8
  %13 = load ptr, ptr %12, align 8
  %14 = tail call noundef zeroext i1 %13(ptr noundef nonnull align 8 dereferenceable(8) %1) #8
  br i1 %14, label %_ZN9xmlStream10klass_textEP5Klass.exit, label %19

_ZN9xmlStream10klass_textEP5Klass.exit:           ; preds = %10
  %15 = getelementptr inbounds i8, ptr %1, i64 24
  %16 = load ptr, ptr %15, align 8
  %17 = getelementptr inbounds i8, ptr %0, i64 56
  %18 = load ptr, ptr %17, align 8
  tail call void @_ZNK6Symbol15print_symbol_onEP12outputStream(ptr noundef nonnull align 4 dereferenceable(8) %16, ptr noundef %18) #8
  br label %21

19:                                               ; preds = %10
  %20 = load ptr, ptr @g_assert_poison, align 8
  store i8 88, ptr %20, align 1
  tail call void @_Z28report_should_not_reach_herePKci(ptr noundef nonnull @.str.15, i32 noundef 498) #10
  unreachable

21:                                               ; preds = %2, %_ZN9xmlStream10klass_textEP5Klass.exit, %9
  ret void
}